; Function Attrs: nounwind uwtable
define range(i32 -2, 1) i32 @gzclose_w(ptr noundef %0) local_unnamed_addr #0 {
  %2 = icmp eq ptr %0, null
  br i1 %2, label %52, label %3

3:                                                ; preds = %1
  %4 = load i32, ptr %0, align 8, !tbaa !3
  %.not = icmp eq i32 %4, 31153
  br i1 %.not, label %5, label %52

5:                                                ; preds = %3
  %6 = getelementptr inbounds nuw i8, ptr %0, i64 104
  %7 = load i32, ptr %6, align 8, !tbaa !15
  %.not21 = icmp eq i32 %7, 0
  br i1 %.not21, label %gz_zero.exit, label %8

8:                                                ; preds = %5
  store i32 0, ptr %6, align 8, !tbaa !15
  %9 = getelementptr inbounds nuw i8, ptr %0, i64 96
  %10 = load i64, ptr %9, align 8, !tbaa !16
  %11 = getelementptr inbounds nuw i8, ptr %0, i64 120
  %12 = getelementptr inbounds nuw i8, ptr %0, i64 128
  %13 = load i32, ptr %12, align 8, !tbaa !17
  %.not.i = icmp eq i32 %13, 0
  br i1 %.not.i, label %17, label %14

14:                                               ; preds = %8
  %15 = tail call fastcc i32 @gz_comp(ptr noundef nonnull %0, i32 noundef 0)
  %16 = icmp eq i32 %15, -1
  br i1 %16, label %gz_zero.exit, label %17

17:                                               ; preds = %14, %8
  %.not2224.i = icmp eq i64 %10, 0
  br i1 %.not2224.i, label %gz_zero.exit, label %.lr.ph.i

.lr.ph.i:                                         ; preds = %17
  %18 = getelementptr inbounds nuw i8, ptr %0, i64 24
  %19 = getelementptr inbounds nuw i8, ptr %0, i64 32
  %20 = getelementptr inbounds nuw i8, ptr %0, i64 16
  br label %23

21:                                               ; preds = %31
  %22 = sub nsw i64 %.02026.i, %.pre-phi.i
  %.not22.i = icmp eq i64 %22, 0
  br i1 %.not22.i, label %gz_zero.exit, label %23, !llvm.loop !18

23:                                               ; preds = %21, %.lr.ph.i
  %.02026.i = phi i64 [ %10, %.lr.ph.i ], [ %22, %21 ]
  %.not2325.i = phi i1 [ false, %.lr.ph.i ], [ true, %21 ]
  %24 = load i32, ptr %18, align 8, !tbaa !14
  %25 = zext i32 %24 to i64
  %26 = tail call i64 @llvm.smin.i64(i64 %.02026.i, i64 %25)
  %27 = trunc i64 %26 to i32
  br i1 %.not2325.i, label %._crit_edge.i, label %28

._crit_edge.i:                                    ; preds = %23
  %.pre.i = and i64 %26, 4294967295
  br label %31

28:                                               ; preds = %23
  %29 = load ptr, ptr %19, align 8, !tbaa !20
  %30 = and i64 %26, 4294967295
  tail call void @llvm.memset.p0.i64(ptr align 1 %29, i8 0, i64 %30, i1 false)
  br label %31

31:                                               ; preds = %28, %._crit_edge.i
  %.pre-phi.i = phi i64 [ %.pre.i, %._crit_edge.i ], [ %30, %28 ]
  store i32 %27, ptr %12, align 8, !tbaa !17
  %32 = load ptr, ptr %19, align 8, !tbaa !20
  store ptr %32, ptr %11, align 8, !tbaa !21
  %33 = load i64, ptr %20, align 8, !tbaa !22
  %34 = add nsw i64 %33, %.pre-phi.i
  store i64 %34, ptr %20, align 8, !tbaa !22
  %35 = tail call fastcc i32 @gz_comp(ptr noundef nonnull %0, i32 noundef 0)
  %36 = icmp eq i32 %35, -1
  br i1 %36, label %gz_zero.exit, label %21

gz_zero.exit:                                     ; preds = %31, %21, %17, %14, %5
  %.019 = phi i32 [ 0, %5 ], [ -1, %14 ], [ 0, %17 ], [ 0, %21 ], [ -1, %31 ]
  %37 = tail call fastcc i32 @gz_comp(ptr noundef %0, i32 noundef 4)
  %38 = add nsw i32 %37, %.019
  %39 = getelementptr inbounds nuw i8, ptr %0, i64 120
  %40 = tail call i32 @deflateEnd(ptr noundef nonnull %39) #14
  %41 = getelementptr inbounds nuw i8, ptr %0, i64 40
  %42 = load ptr, ptr %41, align 8, !tbaa !25
  tail call void @free(ptr noundef %42) #14
  %43 = getelementptr inbounds nuw i8, ptr %0, i64 32
  %44 = load ptr, ptr %43, align 8, !tbaa !20
  tail call void @free(ptr noundef %44) #14
  tail call void @gz_error(ptr noundef nonnull %0, i32 noundef 0, ptr noundef null) #14
  %45 = getelementptr inbounds nuw i8, ptr %0, i64 8
  %46 = load ptr, ptr %45, align 8, !tbaa !35
  tail call void @free(ptr noundef %46) #14
  %47 = getelementptr inbounds nuw i8, ptr %0, i64 4
  %48 = load i32, ptr %47, align 4, !tbaa !31
  %49 = tail call i32 @close(i32 noundef %48) #14
  tail call void @free(ptr noundef %0) #14
  %50 = sub i32 0, %49
  %.not22 = icmp ne i32 %38, %50
  %51 = sext i1 %.not22 to i32
  br label %52

52:                                               ; preds = %3, %1, %gz_zero.exit
  %.0 = phi i32 [ %51, %gz_zero.exit ], [ -2, %1 ], [ -2, %3 ]
  ret i32 %.0
}